ccopy_reg
_reconstructor
p0
(csympy.matrices.dense
MutableDenseMatrix
p1
c__builtin__
object
p2
Ntp3
Rp4
(dp5
S'rows'
p6
I4
sS'_mat'
p7
(lp8
csympy.core.add
Add
p9
(csympy.core.mul
Mul
p10
(g9
(g10
(g9
(g10
(g9
(g10
(csympy.functions.elementary.trigonometric
cos
p11
(csympy.core.symbol
Symbol
p12
(S'theta_1'
p13
tp14
Rp15
(dp16
S'_assumptions'
p17
g0
(csympy.core.assumptions
StdFactKB
p18
c__builtin__
dict
p19
(dp20
S'real'
p21
NsS'zero'
p22
NsS'complex'
p23
NsS'commutative'
p24
I01
sS'rational'
p25
NsS'positive'
p26
NsS'negative'
p27
Nstp28
Rp29
(dp30
S'_generator'
p31
(dp32
sbsbtp33
Rp34
(dp35
bg11
(g12
(S'theta_2'
p36
tp37
Rp38
(dp39
g17
g0
(g18
g19
(dp40
g21
NsS'irrational'
p41
NsS'antihermitian'
p42
NsS'nonpositive'
p43
NsS'algebraic'
p44
NsS'hermitian'
p45
NsS'infinite'
p46
NsS'integer'
p47
NsS'imaginary'
p48
NsS'odd'
p49
NsS'even'
p50
Nsg24
I01
sg22
Nsg26
Nsg27
NsS'nonnegative'
p51
Nsg23
Nsg25
NsS'finite'
p52
Nstp53
Rp54
(dp55
g31
(dp56
sbsbtp57
Rp58
(dp59
bcsympy.functions.elementary.trigonometric
sin
p60
(g12
(S'theta_3'
p61
tp62
Rp63
(dp64
g17
g0
(g18
g19
(dp65
g21
Nsg22
Nsg23
Nsg24
I01
sg25
Nsg26
Nsg27
Nstp66
Rp67
(dp68
g31
(dp69
sbsbtp70
Rp71
(dp72
btp73
Rp74
(dp75
bg10
(g34
g11
(g63
tp76
Rp77
(dp78
bg60
(g38
tp79
Rp80
(dp81
btp82
Rp83
(dp84
btp85
Rp86
(dp87
bg11
(g12
(S'theta_4'
p88
tp89
Rp90
(dp91
g17
g0
(g18
g19
(dp92
g21
Nsg22
Nsg23
Nsg24
I01
sg25
Nsg26
Nsg27
Nstp93
Rp94
(dp95
g31
(dp96
sbsbtp97
Rp98
(dp99
btp100
Rp101
(dp102
bg10
(g60
(g15
tp103
Rp104
(dp105
bg60
(g90
tp106
Rp107
(dp108
btp109
Rp110
(dp111
btp112
Rp113
(dp114
bg11
(g12
(S'theta_5'
p115
tp116
Rp117
(dp118
g17
g0
(g18
g19
(dp119
g21
Nsg22
Nsg23
Nsg24
I01
sg25
Nsg26
Nsg27
Nstp120
Rp121
(dp122
g31
(dp123
sbsbtp124
Rp125
(dp126
btp127
Rp128
(dp129
bg10
(g9
(g10
(g34
g58
g77
tp130
Rp131
(dp132
bg10
(csympy.core.numbers
NegativeOne
p133
(I-1
tp134
Rp135
(dp136
bg34
g80
g71
tp137
Rp138
(dp139
btp140
Rp141
(dp142
bg60
(g117
tp143
Rp144
(dp145
btp146
Rp147
(dp148
btp149
Rp150
(dp151
bg11
(g12
(S'theta_6'
p152
tp153
Rp154
(dp155
g17
g0
(g18
g19
(dp156
g21
Nsg22
Nsg23
Nsg24
I01
sg25
Nsg26
Nsg27
Nstp157
Rp158
(dp159
g31
(dp160
sbsbtp161
Rp162
(dp163
btp164
Rp165
(dp166
bg10
(g135
g9
(g10
(g86
g107
tp167
Rp168
(dp169
bg10
(g135
g98
g104
tp170
Rp171
(dp172
btp173
Rp174
(dp175
bg60
(g154
tp176
Rp177
(dp178
btp179
Rp180
(dp181
btp182
Rp183
(dp184
bag9
(g10
(g135
g150
g177
tp185
Rp186
(dp187
bg10
(g135
g174
g162
tp188
Rp189
(dp190
btp191
Rp192
(dp193
bag9
(g10
(g141
g125
tp194
Rp195
(dp196
bg10
(g135
g113
g144
tp197
Rp198
(dp199
btp200
Rp201
(dp202
bag9
(g10
(csympy.core.numbers
Float
p203
((I0
S'b333333333333L'
p204
I-53
I52
tp205
tp206
Rp207
(dp208
S'_prec'
p209
I53
sbg34
tp210
Rp211
(dp212
bg10
(g203
((I0
S'5L'
p213
I-2
I3
tp214
tp215
Rp216
(dp217
g209
I53
sbg34
g80
tp218
Rp219
(dp220
bg10
(g203
((I0
S'13645a1cac0831L'
p221
I-54
I53
tp222
tp223
Rp224
(dp225
g209
I53
sbg141
g125
tp226
Rp227
(dp228
bg10
(g203
((I1
S'13645a1cac0831L'
p229
I-54
I53
tp230
tp231
Rp232
(dp233
g209
I53
sbg113
g144
tp234
Rp235
(dp236
bg10
(g203
((I0
S'3L'
p237
I-1
I2
tp238
tp239
Rp240
(dp241
g209
I53
sbg34
g58
g77
tp242
Rp243
(dp244
bg10
(g203
((I1
S'3L'
p245
I-1
I2
tp246
tp247
Rp248
(dp249
g209
I53
sbg34
g80
g71
tp250
Rp251
(dp252
bg10
(g203
((I1
S'1ba5e353f7ced9L'
p253
I-57
I53
tp254
tp255
Rp256
(dp257
g209
I53
sbg34
g58
g71
tp258
Rp259
(dp260
bg10
(g203
((I1
S'1ba5e353f7ced9L'
p261
I-57
I53
tp262
tp263
Rp264
(dp265
g209
I53
sbg34
g77
g80
tp266
Rp267
(dp268
btp269
Rp270
(dp271
bag9
(g10
(g9
(g10
(g9
(g10
(g9
(g10
(g58
g104
g71
tp272
Rp273
(dp274
bg10
(g77
g104
g80
tp275
Rp276
(dp277
btp278
Rp279
(dp280
bg98
tp281
Rp282
(dp283
bg10
(g135
g34
g107
tp284
Rp285
(dp286
btp287
Rp288
(dp289
bg125
tp290
Rp291
(dp292
bg10
(g9
(g10
(g58
g77
g104
tp293
Rp294
(dp295
bg10
(g135
g104
g80
g71
tp296
Rp297
(dp298
btp299
Rp300
(dp301
bg144
tp302
Rp303
(dp304
btp305
Rp306
(dp307
bg162
tp308
Rp309
(dp310
bg10
(g135
g9
(g10
(g279
g107
tp311
Rp312
(dp313
bg10
(g34
g98
tp314
Rp315
(dp316
btp317
Rp318
(dp319
bg177
tp320
Rp321
(dp322
btp323
Rp324
(dp325
bag9
(g10
(g135
g306
g177
tp326
Rp327
(dp328
bg10
(g135
g318
g162
tp329
Rp330
(dp331
btp332
Rp333
(dp334
bag9
(g10
(g300
g125
tp335
Rp336
(dp337
bg10
(g135
g288
g144
tp338
Rp339
(dp340
btp341
Rp342
(dp343
bag9
(g10
(g203
((I0
S'b333333333333L'
p344
I-53
I52
tp345
tp346
Rp347
(dp348
g209
I53
sbg104
tp349
Rp350
(dp351
bg10
(g203
((I0
S'5L'
p352
I-2
I3
tp353
tp354
Rp355
(dp356
g209
I53
sbg104
g80
tp357
Rp358
(dp359
bg10
(g203
((I0
S'13645a1cac0831L'
p360
I-54
I53
tp361
tp362
Rp363
(dp364
g209
I53
sbg300
g125
tp365
Rp366
(dp367
bg10
(g203
((I1
S'13645a1cac0831L'
p368
I-54
I53
tp369
tp370
Rp371
(dp372
g209
I53
sbg288
g144
tp373
Rp374
(dp375
bg10
(g203
((I0
S'3L'
p376
I-1
I2
tp377
tp378
Rp379
(dp380
g209
I53
sbg58
g77
g104
tp381
Rp382
(dp383
bg10
(g203
((I1
S'3L'
p384
I-1
I2
tp385
tp386
Rp387
(dp388
g209
I53
sbg104
g80
g71
tp389
Rp390
(dp391
bg10
(g203
((I1
S'1ba5e353f7ced9L'
p392
I-57
I53
tp393
tp394
Rp395
(dp396
g209
I53
sbg58
g104
g71
tp397
Rp398
(dp399
bg10
(g203
((I1
S'1ba5e353f7ced9L'
p400
I-57
I53
tp401
tp402
Rp403
(dp404
g209
I53
sbg77
g104
g80
tp405
Rp406
(dp407
btp408
Rp409
(dp410
bag9
(g10
(g9
(g10
(g9
(g10
(g135
g58
g71
tp411
Rp412
(dp413
bg10
(g135
g77
g80
tp414
Rp415
(dp416
btp417
Rp418
(dp419
bg144
tp420
Rp421
(dp422
bg10
(g9
(g10
(g58
g77
tp423
Rp424
(dp425
bg10
(g135
g80
g71
tp426
Rp427
(dp428
btp429
Rp430
(dp431
bg98
g125
tp432
Rp433
(dp434
btp435
Rp436
(dp437
bg162
tp438
Rp439
(dp440
bg10
(g135
g430
g107
g177
tp441
Rp442
(dp443
btp444
Rp445
(dp446
bag9
(g10
(g135
g436
g177
tp447
Rp448
(dp449
bg10
(g135
g430
g162
g107
tp450
Rp451
(dp452
btp453
Rp454
(dp455
bag9
(g10
(g418
g125
tp456
Rp457
(dp458
bg10
(g135
g430
g98
g144
tp459
Rp460
(dp461
btp462
Rp463
(dp464
bag9
(g203
((I0
S'3L'
p465
I-2
I2
tp466
tp467
Rp468
(dp469
g209
I53
sbg10
(g203
((I0
S'5L'
p470
I-2
I3
tp471
tp472
Rp473
(dp474
g209
I53
sbg58
tp475
Rp476
(dp477
bg10
(g203
((I0
S'13645a1cac0831L'
p478
I-54
I53
tp479
tp480
Rp481
(dp482
g209
I53
sbg418
g125
tp483
Rp484
(dp485
bg10
(g203
((I0
S'1ba5e353f7ced9L'
p486
I-57
I53
tp487
tp488
Rp489
(dp490
g209
I53
sbg80
g71
tp491
Rp492
(dp493
bg10
(g203
((I1
S'3L'
p494
I-1
I2
tp495
tp496
Rp497
(dp498
g209
I53
sbg58
g71
tp499
Rp500
(dp501
bg10
(g203
((I1
S'3L'
p502
I-1
I2
tp503
tp504
Rp505
(dp506
g209
I53
sbg77
g80
tp507
Rp508
(dp509
bg10
(g203
((I1
S'1ba5e353f7ced9L'
p510
I-57
I53
tp511
tp512
Rp513
(dp514
g209
I53
sbg58
g77
tp515
Rp516
(dp517
bg10
(g203
((I1
S'13645a1cac0831L'
p518
I-54
I53
tp519
tp520
Rp521
(dp522
g209
I53
sbg430
g98
g144
tp523
Rp524
(dp525
btp526
Rp527
(dp528
bacsympy.core.numbers
Zero
p529
(I0
tp530
Rp531
(dp532
bag531
ag531
acsympy.core.numbers
One
p533
(I1
tp534
Rp535
(dp536
basS'cols'
p537
I4
sb.