(dp0
csympy.core.symbol
Symbol
p1
(S'd7'
p2
tp3
Rp4
(dp5
S'_assumptions'
p6
ccopy_reg
_reconstructor
p7
(csympy.core.assumptions
StdFactKB
p8
c__builtin__
dict
p9
(dp10
S'finite'
p11
NsS'commutative'
p12
I01
stp13
Rp14
(dp15
S'_generator'
p16
(dp17
sbsbF0.303
sg1
(S'a1'
p18
tp19
Rp20
(dp21
g6
g7
(g8
g9
(dp22
g12
I01
stp23
Rp24
(dp25
g16
(dp26
sbsbF0.35
sg1
(S'theta_2'
p27
tp28
Rp29
(dp30
g6
g7
(g8
g9
(dp31
S'real'
p32
NsS'irrational'
p33
NsS'antihermitian'
p34
NsS'nonpositive'
p35
NsS'algebraic'
p36
NsS'hermitian'
p37
NsS'infinite'
p38
NsS'integer'
p39
NsS'imaginary'
p40
NsS'odd'
p41
NsS'even'
p42
Nsg12
I01
sS'zero'
p43
NsS'positive'
p44
NsS'negative'
p45
NsS'nonnegative'
p46
NsS'complex'
p47
NsS'rational'
p48
Nsg11
Nstp49
Rp50
(dp51
g16
(dp52
sbsbcsympy.core.add
Add
p53
(g29
csympy.core.mul
Mul
p54
(csympy.core.numbers
Rational
p55
(I-1
I2
tp56
Rp57
(dp58
bcsympy.core.numbers
Pi
p59
(tRp60
(dp61
btp62
Rp63
(dp64
btp65
Rp66
(dp67
bsg1
(S'd6'
p68
tp69
Rp70
(dp71
g6
g7
(g8
g9
(dp72
g11
Nsg12
I01
stp73
Rp74
(dp75
g16
(dp76
sbsbI0
sg1
(S'a6'
p77
tp78
Rp79
(dp80
g6
g7
(g8
g9
(dp81
g12
I01
stp82
Rp83
(dp84
g16
(dp85
sbsbI0
sg1
(S'd1'
p86
tp87
Rp88
(dp89
g6
g7
(g8
g9
(dp90
g11
Nsg12
I01
stp91
Rp92
(dp93
g16
(dp94
sbsbF0.75
sg1
(S'alpha6'
p95
tp96
Rp97
(dp98
g6
g7
(g8
g9
(dp99
g32
Nsg43
Nsg47
Nsg12
I01
sg48
Nsg44
Nsg45
Nstp100
Rp101
(dp102
g16
(dp103
sbsbI0
sg1
(S'theta_7'
p104
tp105
Rp106
(dp107
g6
g7
(g8
g9
(dp108
g32
Nsg43
Nsg47
Nsg12
I01
sg48
Nsg44
Nsg45
Nstp109
Rp110
(dp111
g16
(dp112
sbsbI0
sg1
(S'theta_6'
p113
tp114
Rp115
(dp116
g6
g7
(g8
g9
(dp117
g32
Nsg43
Nsg47
Nsg12
I01
sg48
Nsg44
Nsg45
Nstp118
Rp119
(dp120
g16
(dp121
sbsbg115
sg1
(S'alpha3'
p122
tp123
Rp124
(dp125
g6
g7
(g8
g9
(dp126
g32
Nsg43
Nsg47
Nsg12
I01
sg48
Nsg44
Nsg45
Nstp127
Rp128
(dp129
g16
(dp130
sbsbg54
(g57
g60
tp131
Rp132
(dp133
bsg1
(S'a2'
p134
tp135
Rp136
(dp137
g6
g7
(g8
g9
(dp138
g12
I01
stp139
Rp140
(dp141
g16
(dp142
sbsbF1.25
sg1
(S'theta_1'
p143
tp144
Rp145
(dp146
g6
g7
(g8
g9
(dp147
g32
Nsg43
Nsg47
Nsg12
I01
sg48
Nsg44
Nsg45
Nstp148
Rp149
(dp150
g16
(dp151
sbsbg145
sg1
(S'd5'
p152
tp153
Rp154
(dp155
g6
g7
(g8
g9
(dp156
g11
Nsg12
I01
stp157
Rp158
(dp159
g16
(dp160
sbsbI0
sg1
(S'alpha2'
p161
tp162
Rp163
(dp164
g6
g7
(g8
g9
(dp165
g32
Nsg43
Nsg47
Nsg12
I01
sg48
Nsg44
Nsg45
Nstp166
Rp167
(dp168
g16
(dp169
sbsbI0
sg1
(S'a3'
p170
tp171
Rp172
(dp173
g6
g7
(g8
g9
(dp174
g12
I01
stp175
Rp176
(dp177
g16
(dp178
sbsbF-0.054
sg1
(S'alpha4'
p179
tp180
Rp181
(dp182
g6
g7
(g8
g9
(dp183
g32
Nsg43
Nsg47
Nsg12
I01
sg48
Nsg44
Nsg45
Nstp184
Rp185
(dp186
g16
(dp187
sbsbg54
(csympy.core.numbers
Half
p188
(I1
I2
tp189
Rp190
(dp191
bg60
tp192
Rp193
(dp194
bsg1
(S'd4'
p195
tp196
Rp197
(dp198
g6
g7
(g8
g9
(dp199
g11
Nsg12
I01
stp200
Rp201
(dp202
g16
(dp203
sbsbF1.5
sg1
(S'alpha5'
p204
tp205
Rp206
(dp207
g6
g7
(g8
g9
(dp208
g32
Nsg43
Nsg47
Nsg12
I01
sg48
Nsg44
Nsg45
Nstp209
Rp210
(dp211
g16
(dp212
sbsbg132
sg1
(S'theta_5'
p213
tp214
Rp215
(dp216
g6
g7
(g8
g9
(dp217
g32
Nsg43
Nsg47
Nsg12
I01
sg48
Nsg44
Nsg45
Nstp218
Rp219
(dp220
g16
(dp221
sbsbg215
sg1
(S'theta_4'
p222
tp223
Rp224
(dp225
g6
g7
(g8
g9
(dp226
g32
Nsg43
Nsg47
Nsg12
I01
sg48
Nsg44
Nsg45
Nstp227
Rp228
(dp229
g16
(dp230
sbsbg224
sg1
(S'alpha1'
p231
tp232
Rp233
(dp234
g6
g7
(g8
g9
(dp235
g32
Nsg43
Nsg47
Nsg12
I01
sg48
Nsg44
Nsg45
Nstp236
Rp237
(dp238
g16
(dp239
sbsbg132
sg1
(S'a4'
p240
tp241
Rp242
(dp243
g6
g7
(g8
g9
(dp244
g12
I01
stp245
Rp246
(dp247
g16
(dp248
sbsbI0
sg1
(S'd3'
p249
tp250
Rp251
(dp252
g6
g7
(g8
g9
(dp253
g11
Nsg12
I01
stp254
Rp255
(dp256
g16
(dp257
sbsbI0
sg1
(S'alpha0'
p258
tp259
Rp260
(dp261
g6
g7
(g8
g9
(dp262
g32
Nsg43
Nsg47
Nsg12
I01
sg48
Nsg44
Nsg45
Nstp263
Rp264
(dp265
g16
(dp266
sbsbI0
sg1
(S'a5'
p267
tp268
Rp269
(dp270
g6
g7
(g8
g9
(dp271
g12
I01
stp272
Rp273
(dp274
g16
(dp275
sbsbI0
sg1
(S'd2'
p276
tp277
Rp278
(dp279
g6
g7
(g8
g9
(dp280
g11
Nsg12
I01
stp281
Rp282
(dp283
g16
(dp284
sbsbI0
sg1
(S'a0'
p285
tp286
Rp287
(dp288
g6
g7
(g8
g9
(dp289
g12
I01
stp290
Rp291
(dp292
g16
(dp293
sbsbI0
sg1
(S'theta_3'
p294
tp295
Rp296
(dp297
g6
g7
(g8
g9
(dp298
g32
Nsg43
Nsg47
Nsg12
I01
sg48
Nsg44
Nsg45
Nstp299
Rp300
(dp301
g16
(dp302
sbsbg296
s.