ccopy_reg
_reconstructor
p0
(csympy.matrices.dense
MutableDenseMatrix
p1
c__builtin__
object
p2
Ntp3
Rp4
(dp5
S'rows'
p6
I3
sS'_mat'
p7
(lp8
csympy.core.numbers
Float
p9
((I0
S'1L'
p10
I-710
I1
tp11
tp12
Rp13
(dp14
S'_prec'
p15
I1
sbag9
((I1
S'1L'
p16
I-693
I1
tp17
tp18
Rp19
(dp20
g15
I1
sbag9
((I0
S'1L'
p21
I0
I1
tp22
tp23
Rp24
(dp25
g15
I53
sbag9
((I1
S'1L'
p26
I-1403
I1
tp27
tp28
Rp29
(dp30
g15
I1
sbag9
((I1
S'1L'
p31
I0
I1
tp32
tp33
Rp34
(dp35
g15
I53
sbag9
((I1
S'1L'
p36
I-693
I1
tp37
tp38
Rp39
(dp40
g15
I1
sbag9
((I0
S'1L'
p41
I0
I1
tp42
tp43
Rp44
(dp45
g15
I53
sbacsympy.core.numbers
Zero
p46
(I0
tp47
Rp48
(dp49
bag9
((I1
S'1L'
p50
I-627
I1
tp51
tp52
Rp53
(dp54
g15
I1
sbasS'cols'
p55
I3
sb.