ccopy_reg
_reconstructor
p0
(csympy.matrices.dense
MutableDenseMatrix
p1
c__builtin__
object
p2
Ntp3
Rp4
(dp5
S'rows'
p6
I3
sS'_mat'
p7
(lp8
csympy.core.add
Add
p9
(csympy.core.mul
Mul
p10
(csympy.functions.elementary.trigonometric
cos
p11
(csympy.core.symbol
Symbol
p12
(S'theta_1'
p13
tp14
Rp15
(dp16
S'_assumptions'
p17
g0
(csympy.core.assumptions
StdFactKB
p18
c__builtin__
dict
p19
(dp20
S'real'
p21
NsS'zero'
p22
NsS'complex'
p23
NsS'commutative'
p24
I01
sS'rational'
p25
NsS'positive'
p26
NsS'negative'
p27
Nstp28
Rp29
(dp30
S'_generator'
p31
(dp32
sbsbtp33
Rp34
(dp35
bg11
(g12
(S'theta_2'
p36
tp37
Rp38
(dp39
g17
g0
(g18
g19
(dp40
g21
NsS'irrational'
p41
NsS'antihermitian'
p42
NsS'nonpositive'
p43
NsS'algebraic'
p44
NsS'hermitian'
p45
NsS'infinite'
p46
NsS'integer'
p47
NsS'imaginary'
p48
NsS'odd'
p49
NsS'even'
p50
Nsg24
I01
sg22
Nsg26
Nsg27
NsS'nonnegative'
p51
Nsg23
Nsg25
NsS'finite'
p52
Nstp53
Rp54
(dp55
g31
(dp56
sbsbtp57
Rp58
(dp59
bcsympy.functions.elementary.trigonometric
sin
p60
(g12
(S'theta_3'
p61
tp62
Rp63
(dp64
g17
g0
(g18
g19
(dp65
g21
Nsg22
Nsg23
Nsg24
I01
sg25
Nsg26
Nsg27
Nstp66
Rp67
(dp68
g31
(dp69
sbsbtp70
Rp71
(dp72
btp73
Rp74
(dp75
bg10
(g34
g11
(g63
tp76
Rp77
(dp78
bg60
(g38
tp79
Rp80
(dp81
btp82
Rp83
(dp84
btp85
Rp86
(dp87
bag9
(g10
(g34
g58
g77
tp88
Rp89
(dp90
bg10
(csympy.core.numbers
NegativeOne
p91
(I-1
tp92
Rp93
(dp94
bg34
g80
g71
tp95
Rp96
(dp97
btp98
Rp99
(dp100
bag10
(g93
g60
(g15
tp101
Rp102
(dp103
btp104
Rp105
(dp106
bag9
(g10
(g58
g102
g71
tp107
Rp108
(dp109
bg10
(g77
g102
g80
tp110
Rp111
(dp112
btp113
Rp114
(dp115
bag9
(g10
(g58
g77
g102
tp116
Rp117
(dp118
bg10
(g93
g102
g80
g71
tp119
Rp120
(dp121
btp122
Rp123
(dp124
bag34
ag9
(g10
(g58
g77
tp125
Rp126
(dp127
bg10
(g93
g80
g71
tp128
Rp129
(dp130
btp131
Rp132
(dp133
bag9
(g10
(g93
g58
g71
tp134
Rp135
(dp136
bg10
(g93
g77
g80
tp137
Rp138
(dp139
btp140
Rp141
(dp142
bacsympy.core.numbers
Zero
p143
(I0
tp144
Rp145
(dp146
basS'cols'
p147
I3
sb.