ccopy_reg
_reconstructor
p0
(csympy.matrices.dense
MutableDenseMatrix
p1
c__builtin__
object
p2
Ntp3
Rp4
(dp5
S'rows'
p6
I3
sS'_mat'
p7
(lp8
csympy.core.add
Add
p9
(csympy.core.mul
Mul
p10
(csympy.core.numbers
Float
p11
((I0
S'1L'
p12
I-1403
I1
tp13
tp14
Rp15
(dp16
S'_prec'
p17
I1
sbcsympy.functions.elementary.trigonometric
cos
p18
(csympy.core.symbol
Symbol
p19
(S'q1'
p20
tp21
Rp22
(dp23
S'_assumptions'
p24
g0
(csympy.core.assumptions
StdFactKB
p25
c__builtin__
dict
p26
(dp27
S'real'
p28
NsS'zero'
p29
NsS'complex'
p30
NsS'commutative'
p31
I01
sS'rational'
p32
NsS'positive'
p33
NsS'negative'
p34
Nstp35
Rp36
(dp37
S'_generator'
p38
(dp39
sbsbtp40
Rp41
(dp42
bcsympy.functions.elementary.trigonometric
sin
p43
(g19
(S'q3'
p44
tp45
Rp46
(dp47
g24
g0
(g25
g26
(dp48
g28
Nsg29
Nsg30
Nsg31
I01
sg32
Nsg33
Nsg34
Nstp49
Rp50
(dp51
g38
(dp52
sbsbtp53
Rp54
(dp55
btp56
Rp57
(dp58
bg10
(g11
((I0
S'1L'
p59
I-710
I1
tp60
tp61
Rp62
(dp63
g17
I1
sbg18
(g19
(S'q2'
p64
tp65
Rp66
(dp67
g24
g0
(g25
g26
(dp68
g28
Nsg29
Nsg30
Nsg31
I01
sg32
Nsg33
Nsg34
Nstp69
Rp70
(dp71
g38
(dp72
sbsbtp73
Rp74
(dp75
bg18
(g46
tp76
Rp77
(dp78
btp79
Rp80
(dp81
bg10
(g11
((I0
S'1L'
p82
I0
I1
tp83
tp84
Rp85
(dp86
g17
I53
sbg43
(g22
tp87
Rp88
(dp89
bg54
tp90
Rp91
(dp92
bg10
(g11
((I0
S'1L'
p93
I0
I1
tp94
tp95
Rp96
(dp97
g17
I53
sbg41
g77
g43
(g66
tp98
Rp99
(dp100
btp101
Rp102
(dp103
bg10
(g11
((I1
S'1L'
p104
I-1403
I1
tp105
tp106
Rp107
(dp108
g17
I1
sbg77
g88
g99
tp109
Rp110
(dp111
btp112
Rp113
(dp114
bag9
(g10
(g11
((I0
S'1L'
p115
I0
I1
tp116
tp117
Rp118
(dp119
g17
I53
sbg41
g54
tp120
Rp121
(dp122
bg10
(g11
((I1
S'1L'
p123
I-693
I1
tp124
tp125
Rp126
(dp127
g17
I1
sbg74
g77
tp128
Rp129
(dp130
bg10
(g11
((I1
S'1L'
p131
I0
I1
tp132
tp133
Rp134
(dp135
g17
I53
sbg77
g88
g99
tp136
Rp137
(dp138
btp139
Rp140
(dp141
bag9
(g10
(g11
((I0
S'1L'
p142
I-693
I1
tp143
tp144
Rp145
(dp146
g17
I1
sbg41
g54
tp147
Rp148
(dp149
bg10
(g11
((I0
S'1L'
p150
I0
I1
tp151
tp152
Rp153
(dp154
g17
I53
sbg74
g77
tp155
Rp156
(dp157
bg10
(g11
((I1
S'1L'
p158
I-627
I1
tp159
tp160
Rp161
(dp162
g17
I1
sbg88
g54
tp163
Rp164
(dp165
bg10
(g11
((I1
S'1L'
p166
I-693
I1
tp167
tp168
Rp169
(dp170
g17
I1
sbg77
g88
g99
tp171
Rp172
(dp173
bg10
(g11
((I1
S'1L'
p174
I-627
I1
tp175
tp176
Rp177
(dp178
g17
I1
sbg41
g77
g99
tp179
Rp180
(dp181
btp182
Rp183
(dp184
bag9
(g10
(g11
((I0
S'1L'
p185
I-710
I1
tp186
tp187
Rp188
(dp189
g17
I1
sbg74
g54
tp190
Rp191
(dp192
bg10
(g11
((I1
S'1L'
p193
I-1403
I1
tp194
tp195
Rp196
(dp197
g17
I1
sbg41
g77
tp198
Rp199
(dp200
bg10
(g11
((I1
S'1L'
p201
I0
I1
tp202
tp203
Rp204
(dp205
g17
I53
sbg77
g88
tp206
Rp207
(dp208
bg10
(g11
((I0
S'1L'
p209
I0
I1
tp210
tp211
Rp212
(dp213
g17
I53
sbg41
g99
g54
tp214
Rp215
(dp216
bg10
(g11
((I1
S'1L'
p217
I-1403
I1
tp218
tp219
Rp220
(dp221
g17
I1
sbg88
g99
g54
tp222
Rp223
(dp224
btp225
Rp226
(dp227
bag9
(g10
(g11
((I1
S'1L'
p228
I-693
I1
tp229
tp230
Rp231
(dp232
g17
I1
sbg74
g54
tp233
Rp234
(dp235
bg10
(g11
((I1
S'1L'
p236
I0
I1
tp237
tp238
Rp239
(dp240
g17
I53
sbg41
g77
tp241
Rp242
(dp243
bg10
(g11
((I1
S'1L'
p244
I0
I1
tp245
tp246
Rp247
(dp248
g17
I53
sbg88
g99
g54
tp249
Rp250
(dp251
btp252
Rp253
(dp254
bag9
(g10
(g11
((I0
S'1L'
p255
I-627
I1
tp256
tp257
Rp258
(dp259
g17
I1
sbg77
g88
tp260
Rp261
(dp262
bg10
(g11
((I0
S'1L'
p263
I0
I1
tp264
tp265
Rp266
(dp267
g17
I53
sbg74
g54
tp268
Rp269
(dp270
bg10
(g11
((I1
S'1L'
p271
I-693
I1
tp272
tp273
Rp274
(dp275
g17
I1
sbg41
g77
tp276
Rp277
(dp278
bg10
(g11
((I1
S'1L'
p279
I-693
I1
tp280
tp281
Rp282
(dp283
g17
I1
sbg88
g99
g54
tp284
Rp285
(dp286
bg10
(g11
((I1
S'1L'
p287
I-627
I1
tp288
tp289
Rp290
(dp291
g17
I1
sbg41
g99
g54
tp292
Rp293
(dp294
btp295
Rp296
(dp297
bag9
(g10
(g11
((I1
S'1L'
p298
I-710
I1
tp299
tp300
Rp301
(dp302
g17
I1
sbg99
tp303
Rp304
(dp305
bg10
(g11
((I0
S'1L'
p306
I0
I1
tp307
tp308
Rp309
(dp310
g17
I53
sbg41
g74
tp311
Rp312
(dp313
bg10
(g11
((I1
S'1L'
p314
I-1403
I1
tp315
tp316
Rp317
(dp318
g17
I1
sbg74
g88
tp319
Rp320
(dp321
btp322
Rp323
(dp324
bag9
(g10
(g11
((I0
S'1L'
p325
I-693
I1
tp326
tp327
Rp328
(dp329
g17
I1
sbg99
tp330
Rp331
(dp332
bg10
(g11
((I1
S'1L'
p333
I0
I1
tp334
tp335
Rp336
(dp337
g17
I53
sbg74
g88
tp338
Rp339
(dp340
btp341
Rp342
(dp343
bag9
(g10
(g11
((I1
S'1L'
p344
I0
I1
tp345
tp346
Rp347
(dp348
g17
I53
sbg99
tp349
Rp350
(dp351
bg10
(g11
((I1
S'1L'
p352
I-693
I1
tp353
tp354
Rp355
(dp356
g17
I1
sbg74
g88
tp357
Rp358
(dp359
bg10
(g11
((I1
S'1L'
p360
I-627
I1
tp361
tp362
Rp363
(dp364
g17
I1
sbg41
g74
tp365
Rp366
(dp367
btp368
Rp369
(dp370
basS'cols'
p371
I3
sb.